; Function Attrs: mustprogress uwtable
define void @_ZNK6casadi10ConstantMX10ad_forwardERKSt6vectorIS1_INS_2MXESaIS2_EESaIS4_EERS6_(ptr noundef nonnull align 8 dereferenceable(64) %0, ptr nocapture nonnull readnone align 8 %1, ptr nocapture noundef nonnull readonly align 8 dereferenceable(24) %2) unnamed_addr #3 align 2 personality ptr @__gxx_personality_v0 {
  %4 = alloca %"class.casadi::MX", align 8
  %5 = getelementptr inbounds i8, ptr %0, i64 56
  %6 = tail call noundef i64 @_ZNK6casadi8Sparsity5size1Ev(ptr noundef nonnull align 8 dereferenceable(8) %5)
  %7 = tail call noundef i64 @_ZNK6casadi8Sparsity5size2Ev(ptr noundef nonnull align 8 dereferenceable(8) %5)
  call void @_ZN6casadi2MXC1Exx(ptr noundef nonnull align 8 dereferenceable(8) %4, i64 noundef %6, i64 noundef %7)
  %8 = getelementptr inbounds i8, ptr %2, i64 8
  %9 = load ptr, ptr %8, align 8
  %10 = load ptr, ptr %2, align 8
  %.not = icmp eq ptr %9, %10
  br i1 %.not, label %._crit_edge, label %.lr.ph

.lr.ph:                                           ; preds = %3, %_ZN6casadi2MXaSERKS0_.exit
  %11 = phi ptr [ %17, %_ZN6casadi2MXaSERKS0_.exit ], [ %10, %3 ]
  %.07 = phi i64 [ %15, %_ZN6casadi2MXaSERKS0_.exit ], [ 0, %3 ]
  %12 = getelementptr inbounds %"class.std::vector", ptr %11, i64 %.07
  %13 = load ptr, ptr %12, align 8
  %14 = invoke noundef nonnull align 8 dereferenceable(8) ptr @_ZN6casadi12SharedObjectaSERKS0_(ptr noundef nonnull align 8 dereferenceable(8) %13, ptr noundef nonnull align 8 dereferenceable(8) %4)
          to label %_ZN6casadi2MXaSERKS0_.exit unwind label %23

_ZN6casadi2MXaSERKS0_.exit:                       ; preds = %.lr.ph
  %15 = add nuw nsw i64 %.07, 1
  %16 = load ptr, ptr %8, align 8
  %17 = load ptr, ptr %2, align 8
  %18 = ptrtoint ptr %16 to i64
  %19 = ptrtoint ptr %17 to i64
  %20 = sub i64 %18, %19
  %21 = sdiv exact i64 %20, 24
  %22 = icmp ult i64 %15, %21
  br i1 %22, label %.lr.ph, label %._crit_edge, !llvm.loop !7

23:                                               ; preds = %.lr.ph
  %24 = landingpad { ptr, i32 }
          cleanup
  call void @_ZN6casadi2MXD1Ev(ptr noundef nonnull align 8 dereferenceable(8) %4) #25
  resume { ptr, i32 } %24

._crit_edge:                                      ; preds = %_ZN6casadi2MXaSERKS0_.exit, %3
  call void @_ZN6casadi2MXD1Ev(ptr noundef nonnull align 8 dereferenceable(8) %4) #25
  ret void
}